Certificate:
    Data:
        Version: 3 (0x2)
        Serial Number: 1 (0x1)
    Signature Algorithm: sha256WithRSAEncryption
        Issuer: CN=devcert
        Validity
            Not Before: Apr 22 12:22:08 2020 GMT
            Not After : Jul 26 12:22:08 2022 GMT
        Subject: CN=localhost
        Subject Public Key Info:
            Public Key Algorithm: rsaEncryption
                Public-Key: (2048 bit)
                Modulus:
                    00:f5:05:e4:9b:44:d8:3b:fc:d8:a8:34:14:c7:86:
                    5f:b2:1a:35:3a:9f:3c:d6:b8:e0:62:a9:e6:54:ce:
                    3f:e7:78:a8:30:b3:6e:c8:bd:13:c9:44:d6:dd:a5:
                    30:c6:ad:b8:bb:cd:65:b8:b6:b3:6a:22:dc:56:26:
                    82:36:72:7f:e7:d9:3d:18:50:b1:ab:3e:30:43:a5:
                    1f:7d:45:f3:b7:e8:fd:b3:99:3d:b3:58:f1:28:74:
                    22:82:ea:91:c7:f8:0e:52:11:0e:68:91:6c:08:93:
                    5b:74:e3:69:1d:e2:5f:3c:35:43:14:9d:ab:bd:81:
                    8f:b1:1a:c8:17:33:4c:e0:2b:17:d3:da:5c:ee:95:
                    35:4e:c4:d0:b0:9e:d6:a3:9d:b3:55:9e:db:1f:e4:
                    37:8d:b7:ce:c4:fd:f1:62:9c:a7:c2:85:d9:09:cd:
                    4a:a8:2c:e4:f4:b9:e6:9c:63:4e:28:cf:02:00:b0:
                    11:73:67:ea:10:b4:ca:a9:ab:d5:36:01:cd:83:37:
                    34:7d:b8:41:50:ef:c4:dc:84:21:00:40:83:e2:66:
                    56:18:fa:a5:5a:0a:1e:cc:1a:01:5f:e6:31:ee:f3:
                    69:e1:c9:80:a7:57:3a:05:34:bb:05:fc:11:1c:c1:
                    b4:61:ad:cb:02:11:2c:54:46:e5:e6:34:e3:c0:5f:
                    4f:47
                Exponent: 65537 (0x10001)
        X509v3 extensions:
            X509v3 Basic Constraints: critical
                CA:FALSE
            X509v3 Subject Key Identifier: 
                88:3F:E2:8D:EB:C3:23:00:AE:99:01:71:AD:C7:6E:83:F7:10:B6:4A
            X509v3 Authority Key Identifier: 
                keyid:4A:47:EC:B5:47:55:C0:56:28:2C:33:ED:5E:E0:02:CB:91:1A:E4:AF
                DirName:/CN=devcert
                serial:E3:AA:7A:0F:02:8B:4D:4F

            X509v3 Key Usage: critical
                Digital Signature, Key Encipherment
            X509v3 Extended Key Usage: 
                TLS Web Server Authentication
            X509v3 Subject Alternative Name: 
                DNS:localhost, DNS:*.localhost
    Signature Algorithm: sha256WithRSAEncryption
         91:1d:e8:03:51:5c:7e:6c:a0:36:62:a6:3f:68:c1:e7:33:54:
         1f:f2:92:c0:4d:96:07:97:e1:44:93:76:c8:62:ae:e5:2e:f4:
         fe:58:a9:54:77:98:fe:71:f0:e5:e6:eb:4c:b7:91:14:c7:68:
         29:b5:7b:b4:2a:7d:62:c4:74:0f:12:38:94:63:b1:7b:04:6b:
         f0:dd:5e:75:f2:f1:e4:e0:56:91:34:86:1c:35:28:86:0c:55:
         9c:ab:82:d4:f0:1f:8f:50:ff:1b:cc:af:7f:ed:59:ab:4e:1a:
         3d:a4:86:d6:96:b4:67:69:5d:40:34:9e:da:8d:6f:cf:15:15:
         a8:fe:dd:84:cb:c8:c5:43:8f:88:65:d6:17:57:28:02:b9:23:
         d8:53:18:e7:91:66:40:7c:42:fa:01:c1:99:9a:70:19:e0:a0:
         df:e7:1e:e0:a2:d4:64:1d:e5:08:d4:9e:3b:0d:3c:59:08:23:
         86:25:15:ea:82:7b:87:3f:c4:af:40:ae:f5:8a:e8:5a:74:8e:
         41:75:98:ba:1e:bd:4a:80:93:92:d5:c9:ba:ea:af:0b:3e:66:
         23:b1:a0:94:ca:a5:65:a6:9e:d3:68:bf:75:64:d4:40:1b:16:
         dd:f9:a7:49:89:27:8b:ce:69:bc:79:06:35:55:bf:57:eb:6b:
         ef:df:ad:5d
-----BEGIN CERTIFICATE-----
MIIDXjCCAkagAwIBAgIBATANBgkqhkiG9w0BAQsFADASMRAwDgYDVQQDDAdkZXZj
ZXJ0MB4XDTIwMDQyMjEyMjIwOFoXDTIyMDcyNjEyMjIwOFowFDESMBAGA1UEAwwJ
bG9jYWxob3N0MIIBIjANBgkqhkiG9w0BAQEFAAOCAQ8AMIIBCgKCAQEA9QXkm0TY
O/zYqDQUx4Zfsho1Op881rjgYqnmVM4/53ioMLNuyL0TyUTW3aUwxq24u81luLaz
aiLcViaCNnJ/59k9GFCxqz4wQ6UffUXzt+j9s5k9s1jxKHQiguqRx/gOUhEOaJFs
CJNbdONpHeJfPDVDFJ2rvYGPsRrIFzNM4CsX09pc7pU1TsTQsJ7Wo52zVZ7bH+Q3
jbfOxP3xYpynwoXZCc1KqCzk9LnmnGNOKM8CALARc2fqELTKqavVNgHNgzc0fbhB
UO/E3IQhAECD4mZWGPqlWgoezBoBX+Yx7vNp4cmAp1c6BTS7BfwRHMG0Ya3LAhEs
VEbl5jTjwF9PRwIDAQABo4G8MIG5MAwGA1UdEwEB/wQCMAAwHQYDVR0OBBYEFIg/
4o3rwyMArpkBca3HboP3ELZKMEIGA1UdIwQ7MDmAFEpH7LVHVcBWKCwz7V7gAsuR
GuSvoRakFDASMRAwDgYDVQQDDAdkZXZjZXJ0ggkA46p6DwKLTU8wDgYDVR0PAQH/
BAQDAgWgMBMGA1UdJQQMMAoGCCsGAQUFBwMBMCEGA1UdEQQaMBiCCWxvY2FsaG9z
dIILKi5sb2NhbGhvc3QwDQYJKoZIhvcNAQELBQADggEBAJEd6ANRXH5soDZipj9o
weczVB/yksBNlgeX4USTdshiruUu9P5YqVR3mP5x8OXm60y3kRTHaCm1e7QqfWLE
dA8SOJRjsXsEa/DdXnXy8eTgVpE0hhw1KIYMVZyrgtTwH49Q/xvMr3/tWatOGj2k
htaWtGdpXUA0ntqNb88VFaj+3YTLyMVDj4hl1hdXKAK5I9hTGOeRZkB8QvoBwZma
cBngoN/nHuCi1GQd5QjUnjsNPFkII4YlFeqCe4c/xK9ArvWK6Fp0jkF1mLoevUqA
k5LVybrqrws+ZiOxoJTKpWWmntNov3Vk1EAbFt35p0mJJ4vOabx5BjVVv1fra+/f
rV0=
-----END CERTIFICATE-----
